target datalayout = "e-m:e-p270:32:32-p271:32:32-p272:64:64-i64:64-i128:128-f80:128-n8:16:32:64-S128"
target triple = "x86_64-pc-linux-gnu"

@.str.1799 = private unnamed_addr constant [3 x i8] c"%i\00", align 1

; Function Attrs: null_pointer_is_valid sspstrong uwtable
define internal void @sint12_convert(ptr noundef %0, i16 noundef zeroext %1) #1 {
  %3 = alloca ptr, align 8
  %4 = alloca i16, align 2
  store ptr %0, ptr %3, align 8
  store i16 %1, ptr %4, align 2
  %5 = load i16, ptr %4, align 2
  %6 = zext i16 %5 to i32
  %7 = icmp sgt i32 %6, 2048
  br i1 %7, label %8, label %18

8:                                                ; preds = %2
  %9 = load ptr, ptr %3, align 8
  %10 = load ptr, ptr %3, align 8
  %11 = call i64 @llvm.objectsize.i64.p0(ptr %10, i1 false, i1 true, i1 true)
  %12 = load i16, ptr %4, align 2
  %13 = zext i16 %12 to i32
  %14 = add i32 61440, %13
  %15 = trunc i32 %14 to i16
  %16 = sext i16 %15 to i32
  %17 = call i32 (ptr, i64, i32, i64, ptr, ...) @__snprintf_chk(ptr noundef %9, i64 noundef 240, i32 noundef 2, i64 noundef %11, ptr noundef @.str.1799, i32 noundef %16)
  br label %25

18:                                               ; preds = %2
  %19 = load ptr, ptr %3, align 8
  %20 = load ptr, ptr %3, align 8
  %21 = call i64 @llvm.objectsize.i64.p0(ptr %20, i1 false, i1 true, i1 true)
  %22 = load i16, ptr %4, align 2
  %23 = zext i16 %22 to i32
  %24 = call i32 (ptr, i64, i32, i64, ptr, ...) @__snprintf_chk(ptr noundef %19, i64 noundef 240, i32 noundef 2, i64 noundef %21, ptr noundef @.str.1799, i32 noundef %23)
  br label %25

25:                                               ; preds = %18, %8
  ret void
}