; Function Attrs: nofree null_pointer_is_valid sspstrong uwtable
define internal void @sint12_convert(ptr noundef %0, i16 noundef zeroext %1) #3 {
  %3 = icmp ugt i16 %1, 2048
  %4 = zext nneg i16 %1 to i32
  %5 = add i16 %1, -4096
  %6 = sext i16 %5 to i32
  %.sink = select i1 %3, i32 %6, i32 %4
  %7 = tail call i32 (ptr, i64, i32, i64, ptr, ...) @__snprintf_chk(ptr noundef %0, i64 noundef 240, i32 noundef 2, i64 noundef -1, ptr noundef nonnull @.str.1799, i32 noundef %.sink)
  ret void
}